target datalayout = "e-m:e-p270:32:32-p271:32:32-p272:64:64-i64:64-i128:128-f80:128-n8:16:32:64-S128"
target triple = "x86_64-pc-linux-gnu"

%struct.TCGContext = type { ptr, ptr, ptr, ptr, ptr, i32, i32, i32, i32, i32, i32, i32, i8, i8, i8, i32, i32, i64, i64, i64, ptr, ptr, ptr, ptr, ptr, i64, ptr, ptr, ptr, ptr, %struct.anon, ptr, ptr, ptr, ptr, ptr, [6 x ptr], [6 x %struct.TCGTempSet], [512 x %struct.TCGTemp], %union.anon, %union.anon, %struct.anon.0, ptr, [32 x ptr], [512 x i16], ptr, [1 x %struct.__jmp_buf_tag] }
%struct.anon = type { ptr, ptr }
%struct.TCGTempSet = type { [8 x i64] }
%struct.TCGTemp = type { i64, i64, ptr, i64, ptr, i64, ptr }
%union.anon = type { %struct.QTailQLink }
%struct.QTailQLink = type { ptr, ptr }
%struct.anon.0 = type { ptr, ptr }
%struct.__jmp_buf_tag = type { [8 x i64], i32, %struct.__sigset_t }
%struct.__sigset_t = type { [16 x i64] }

@tcg_ctx = dso_local thread_local global ptr null, align 8
@.str.4 = private unnamed_addr constant [18 x i8] c"../qemu/tcg/tcg.c\00", align 1
@__func__.tcg_temp_free_internal = private unnamed_addr constant [23 x i8] c"tcg_temp_free_internal\00", align 1

; Function Attrs: inlinehint nounwind sspstrong uwtable
define internal void @set_bit(i64 noundef %0, ptr noundef %1) #3 {
  %3 = alloca i64, align 8
  %4 = alloca ptr, align 8
  %5 = alloca i64, align 8
  %6 = alloca ptr, align 8
  store i64 %0, ptr %3, align 8
  store ptr %1, ptr %4, align 8
  call void @llvm.lifetime.start.p0(i64 8, ptr %5) #19
  %7 = load i64, ptr %3, align 8
  %8 = urem i64 %7, 64
  %9 = shl i64 1, %8
  store i64 %9, ptr %5, align 8
  call void @llvm.lifetime.start.p0(i64 8, ptr %6) #19
  %10 = load ptr, ptr %4, align 8
  %11 = load i64, ptr %3, align 8
  %12 = udiv i64 %11, 64
  %13 = getelementptr inbounds nuw i64, ptr %10, i64 %12
  store ptr %13, ptr %6, align 8
  %14 = load i64, ptr %5, align 8
  %15 = load ptr, ptr %6, align 8
  %16 = load i64, ptr %15, align 8
  %17 = or i64 %16, %14
  store i64 %17, ptr %15, align 8
  call void @llvm.lifetime.end.p0(i64 8, ptr %6) #19
  call void @llvm.lifetime.end.p0(i64 8, ptr %5) #19
  ret void
}

; Function Attrs: inlinehint nounwind sspstrong uwtable
define internal i64 @temp_idx(ptr noundef %0) #3 {
  %2 = alloca ptr, align 8
  store ptr %0, ptr %2, align 8
  %3 = load ptr, ptr %2, align 8
  %4 = call align 8 ptr @llvm.threadlocal.address.p0(ptr align 8 @tcg_ctx)
  %5 = load ptr, ptr %4, align 8
  %6 = getelementptr inbounds nuw %struct.TCGContext, ptr %5, i32 0, i32 38
  %7 = getelementptr inbounds [512 x %struct.TCGTemp], ptr %6, i64 0, i64 0
  %8 = ptrtoint ptr %3 to i64
  %9 = ptrtoint ptr %7 to i64
  %10 = sub i64 %8, %9
  %11 = sdiv exact i64 %10, 56
  ret i64 %11
}

; Function Attrs: inlinehint nounwind sspstrong uwtable
define internal ptr @tcgv_i32_temp(ptr noundef %0) #3 {
  %2 = alloca ptr, align 8
  store ptr %0, ptr %2, align 8
  %3 = call align 8 ptr @llvm.threadlocal.address.p0(ptr align 8 @tcg_ctx)
  %4 = load ptr, ptr %3, align 8
  %5 = load ptr, ptr %2, align 8
  %6 = ptrtoint ptr %5 to i64
  %7 = getelementptr inbounds nuw i8, ptr %4, i64 %6
  ret ptr %7
}

; Function Attrs: nounwind sspstrong uwtable
define dso_local void @tcg_temp_free_internal(ptr noundef %0) #0 {
  %2 = alloca ptr, align 8
  %3 = alloca ptr, align 8
  store ptr %0, ptr %2, align 8
  call void @llvm.lifetime.start.p0(i64 8, ptr %3) #19
  %4 = call align 8 ptr @llvm.threadlocal.address.p0(ptr align 8 @tcg_ctx)
  %5 = load ptr, ptr %4, align 8
  store ptr %5, ptr %3, align 8
  %6 = load ptr, ptr %2, align 8
  %7 = load i64, ptr %6, align 8
  %8 = lshr i64 %7, 32
  %9 = and i64 %8, 7
  %10 = trunc i64 %9 to i32
  switch i32 %10, label %41 [
    i32 4, label %11
    i32 1, label %11
    i32 0, label %12
  ]

11:                                               ; preds = %1, %1
  br label %45

12:                                               ; preds = %1
  br label %13

13:                                               ; preds = %12
  %14 = load ptr, ptr %2, align 8
  %15 = load i64, ptr %14, align 8
  %16 = lshr i64 %15, 39
  %17 = and i64 %16, 1
  %18 = trunc i64 %17 to i32
  %19 = icmp ne i32 %18, 0
  br i1 %19, label %21, label %20

20:                                               ; preds = %13
  unreachable

21:                                               ; preds = %13
  br label %22

22:                                               ; preds = %21
  br label %23

23:                                               ; preds = %22
  %24 = load ptr, ptr %2, align 8
  %25 = load i64, ptr %24, align 8
  %26 = and i64 %25, -549755813889
  %27 = or i64 %26, 0
  store i64 %27, ptr %24, align 8
  %28 = load ptr, ptr %2, align 8
  %29 = call i64 @temp_idx(ptr noundef %28)
  %30 = load ptr, ptr %3, align 8
  %31 = getelementptr inbounds nuw %struct.TCGContext, ptr %30, i32 0, i32 37
  %32 = load ptr, ptr %2, align 8
  %33 = load i64, ptr %32, align 8
  %34 = lshr i64 %33, 16
  %35 = and i64 %34, 255
  %36 = trunc i64 %35 to i32
  %37 = zext i32 %36 to i64
  %38 = getelementptr inbounds nuw [6 x %struct.TCGTempSet], ptr %31, i64 0, i64 %37
  %39 = getelementptr inbounds nuw %struct.TCGTempSet, ptr %38, i32 0, i32 0
  %40 = getelementptr inbounds [8 x i64], ptr %39, i64 0, i64 0
  call void @set_bit(i64 noundef %29, ptr noundef %40)
  br label %45

41:                                               ; preds = %1
  br label %42

42:                                               ; preds = %41
  call void @g_assertion_message_expr(ptr noundef null, ptr noundef @.str.4, i32 noundef 1985, ptr noundef @__func__.tcg_temp_free_internal, ptr noundef null) #20
  unreachable

43:                                               ; No predecessors!
  br label %44

44:                                               ; preds = %43
  br label %45

45:                                               ; preds = %44, %23, %11
  call void @llvm.lifetime.end.p0(i64 8, ptr %3) #19
  ret void
}

; Function Attrs: inlinehint nounwind sspstrong uwtable
define internal ptr @tcgv_ptr_temp(ptr noundef %0) #3 {
  %2 = alloca ptr, align 8
  store ptr %0, ptr %2, align 8
  %3 = load ptr, ptr %2, align 8
  %4 = call ptr @tcgv_i32_temp(ptr noundef %3)
  ret ptr %4
}

; Function Attrs: nounwind sspstrong uwtable
define dso_local void @tcg_temp_free_ptr(ptr noundef %0) #0 {
  %2 = alloca ptr, align 8
  store ptr %0, ptr %2, align 8
  %3 = load ptr, ptr %2, align 8
  %4 = call ptr @tcgv_ptr_temp(ptr noundef %3)
  call void @tcg_temp_free_internal(ptr noundef %4)
  ret void
}