; Function Attrs: nounwind sspstrong uwtable
define dso_local void @tcg_temp_free_ptr(ptr noundef %0) local_unnamed_addr #0 {
  %2 = tail call align 8 ptr @llvm.threadlocal.address.p0(ptr align 8 @tcg_ctx)
  %3 = load ptr, ptr %2, align 8
  %4 = ptrtoint ptr %0 to i64
  %5 = getelementptr inbounds nuw i8, ptr %3, i64 %4
  %6 = load i64, ptr %5, align 8
  %7 = lshr i64 %6, 32
  %8 = trunc nuw i64 %7 to i32
  %9 = and i32 %8, 7
  switch i32 %9, label %30 [
    i32 4, label %tcg_temp_free_internal.exit
    i32 1, label %tcg_temp_free_internal.exit
    i32 0, label %10
  ]

10:                                               ; preds = %1
  %11 = and i64 %6, 549755813888
  %12 = icmp ne i64 %11, 0
  tail call void @llvm.assume(i1 %12)
  %13 = and i64 %6, -549755813889
  store i64 %13, ptr %5, align 8
  %14 = load ptr, ptr %2, align 8
  %15 = getelementptr inbounds nuw i8, ptr %14, i64 672
  %16 = ptrtoint ptr %5 to i64
  %17 = ptrtoint ptr %15 to i64
  %18 = sub i64 %16, %17
  %19 = sdiv exact i64 %18, 56
  %20 = getelementptr inbounds nuw i8, ptr %3, i64 288
  %21 = lshr i64 %6, 16
  %22 = and i64 %21, 255
  %23 = getelementptr inbounds nuw [6 x %struct.TCGTempSet], ptr %20, i64 0, i64 %22
  %24 = and i64 %19, 63
  %25 = shl nuw i64 1, %24
  %26 = lshr i64 %19, 6
  %27 = getelementptr inbounds nuw i64, ptr %23, i64 %26
  %28 = load i64, ptr %27, align 8
  %29 = or i64 %25, %28
  store i64 %29, ptr %27, align 8
  br label %tcg_temp_free_internal.exit

30:                                               ; preds = %1
  tail call void @g_assertion_message_expr(ptr noundef null, ptr noundef nonnull @.str.4, i32 noundef 1985, ptr noundef nonnull @__func__.tcg_temp_free_internal, ptr noundef null) #31
  unreachable

tcg_temp_free_internal.exit:                      ; preds = %1, %1, %10
  ret void
}